
Allocating common symbols
Common symbol       size              file

io                  0x10              io.o

Memory Configuration

Name             Origin             Length             Attributes
ROM              0x0000000000000000 0x0000000000001000 x !rw
RAM              0x0000000000001000 0x0000000000001000 rw !x
IO               0x0000000080000000 0x0000000000000010 rw !x
*default*        0x0000000000000000 0xffffffffffffffff

Linker script and memory map


.text           0x0000000000000000      0x8b0
 boot.o(.text)
 .text          0x0000000000000000       0xa8 boot.o
                0x0000000000000000                boot
 *(.text)
 .text          0x00000000000000a8        0x0 io.o
 .text          0x00000000000000a8      0x768 stdio.o
                0x00000000000000a8                getchar
                0x00000000000000d0                putchar
                0x0000000000000118                gets
                0x00000000000001d8                putstr
                0x0000000000000220                puts
                0x0000000000000240                putdx
                0x0000000000000330                putx
                0x000000000000033c                putd
                0x0000000000000348                printf
                0x0000000000000424                strncmp
                0x0000000000000460                strcmp
                0x000000000000046c                strlen
                0x0000000000000494                memcpy
                0x00000000000004c0                memset
                0x00000000000004e4                strtok
                0x0000000000000588                atoi
                0x00000000000005e4                xtoi
                0x000000000000062c                mac
                0x000000000000063c                mod
                0x000000000000064c                __umulsi3
                0x00000000000006a0                __mulsi3
                0x00000000000006f8                __udiv_umod_si3
                0x0000000000000754                __udivsi3
                0x0000000000000760                __umodsi3
                0x000000000000076c                __div_mod_si3
                0x00000000000007f8                __divsi3
                0x0000000000000804                __modsi3
 .text          0x0000000000000810       0x18 main.o
                0x0000000000000810                test_call
 .text          0x0000000000000828       0x88 banner.o
                0x0000000000000828                banner

.text.startup   0x00000000000008b0      0x31c
 .text.startup  0x00000000000008b0      0x31c main.o
                0x00000000000008b0                main

.data           0x0000000000001000      0x280
 *(.data)
 .data          0x0000000000001000        0x0 boot.o
 .data          0x0000000000001000       0x18 io.o
                0x0000000000001000                board_name
 .data          0x0000000000001018        0x0 stdio.o
 .data          0x0000000000001018        0x0 main.o
 .data          0x0000000000001018        0x0 banner.o
 *(.bss)
 .bss           0x0000000000001018        0x0 boot.o
 .bss           0x0000000000001018        0x0 io.o
 .bss           0x0000000000001018        0x0 stdio.o
 .bss           0x0000000000001018        0x0 main.o
 .bss           0x0000000000001018        0x0 banner.o
 *(.rela*)
 .rela.text     0x0000000000001018        0x0 boot.o
 .rela.text.startup
                0x0000000000001018        0x0 boot.o
 *(.rodata*)
 .rodata.str1.4
                0x0000000000001018       0x71 io.o
 *fill*         0x0000000000001089        0x3 
 .rodata.str1.4
                0x000000000000108c       0x19 stdio.o
 *fill*         0x00000000000010a5        0x3 
 .rodata        0x00000000000010a8       0x40 stdio.o
 .rodata.str1.4
                0x00000000000010e8       0x78 main.o
 .rodata.str1.4
                0x0000000000001160      0x115 banner.o
 *(.sbss)
 *fill*         0x0000000000001275        0x3 
 .sbss          0x0000000000001278        0x4 io.o
                0x0000000000001278                threads
 .sbss          0x000000000000127c        0x4 stdio.o

.sdata          0x0000000000001280        0xc
 .sdata         0x0000000000001280        0xc main.o
                0x0000000000001280                opts
                0x0000000000001282                port
                0x0000000000001284                ip
                0x0000000000001288                test

.io             0x0000000080000000       0x10
 io.o(COMMON)
 COMMON         0x0000000080000000       0x10 io.o
                0x0000000080000000                io
LOAD boot.o
LOAD stdio.o
LOAD main.o
LOAD io.o
LOAD banner.o
OUTPUT(darksocv.o elf32-littleriscv)

.comment        0x0000000000000000       0x11
 .comment       0x0000000000000000       0x11 boot.o
                                         0x12 (size before relaxing)
 .comment       0x0000000000000011       0x12 io.o
 .comment       0x0000000000000011       0x12 stdio.o
 .comment       0x0000000000000011       0x12 main.o
 .comment       0x0000000000000011       0x12 banner.o

.riscv.attributes
                0x0000000000000000       0x1c
 .riscv.attributes
                0x0000000000000000       0x1c boot.o
 .riscv.attributes
                0x000000000000001c       0x1c io.o
 .riscv.attributes
                0x0000000000000038       0x1c stdio.o
 .riscv.attributes
                0x0000000000000054       0x1c main.o
 .riscv.attributes
                0x0000000000000070       0x1c banner.o
